; ModuleID = 'main.e63c293359811fe8-cgu.0'
source_filename = "main.e63c293359811fe8-cgu.0"
target datalayout = "e-m:o-i64:64-i128:128-n32:64-S128-Fn32"
target triple = "arm64-apple-macosx11.0.0"

%"core::fmt::rt::Argument<'_>" = type { %"core::fmt::rt::ArgumentType<'_>" }
%"core::fmt::rt::ArgumentType<'_>" = type { ptr, [1 x i64] }

@vtable.0 = private unnamed_addr constant <{ [24 x i8], ptr, ptr, ptr }> <{ [24 x i8] c"\00\00\00\00\00\00\00\00\08\00\00\00\00\00\00\00\08\00\00\00\00\00\00\00", ptr @"_ZN4core3ops8function6FnOnce40call_once$u7b$$u7b$vtable.shim$u7d$$u7d$17hf886b4233c8dc6a5E", ptr @"_ZN3std2rt10lang_start28_$u7b$$u7b$closure$u7d$$u7d$17h9097b0aeb619ec9bE", ptr @"_ZN3std2rt10lang_start28_$u7b$$u7b$closure$u7d$$u7d$17h9097b0aeb619ec9bE" }>, align 8
@alloc_fad0cd83b7d1858a846a172eb260e593 = private unnamed_addr constant <{ [42 x i8] }> <{ [42 x i8] c"is_aligned_to: align is not a power-of-two" }>, align 1
@alloc_e92e94d0ff530782b571cfd99ec66aef = private unnamed_addr constant <{ ptr, [8 x i8] }> <{ ptr @alloc_fad0cd83b7d1858a846a172eb260e593, [8 x i8] c"*\00\00\00\00\00\00\00" }>, align 8
@0 = private unnamed_addr constant <{ [8 x i8], [8 x i8] }> <{ [8 x i8] zeroinitializer, [8 x i8] undef }>, align 8
@alloc_8038591a9d964ced7b8a3ab07e968ef7 = private unnamed_addr constant <{ [118 x i8] }> <{ [118 x i8] c"/Users/pranayraj/.rustup/toolchains/stable-aarch64-apple-darwin/lib/rustlib/src/rust/library/core/src/ptr/const_ptr.rs" }>, align 1
@alloc_6eb0c129727f748441fe4d10dd46110e = private unnamed_addr constant <{ ptr, [16 x i8] }> <{ ptr @alloc_8038591a9d964ced7b8a3ab07e968ef7, [16 x i8] c"v\00\00\00\00\00\00\00\C8\05\00\00\0D\00\00\00" }>, align 8
@alloc_8df0580a595a87d56789d20c7318e185 = private unnamed_addr constant <{ [166 x i8] }> <{ [166 x i8] c"unsafe precondition(s) violated: ptr::copy_nonoverlapping requires that both pointer arguments are aligned and non-null and the specified memory ranges do not overlap" }>, align 1
@alloc_ab14703751a9eb3585c49b2e55e9a9e5 = private unnamed_addr constant <{ [104 x i8] }> <{ [104 x i8] c"unsafe precondition(s) violated: hint::assert_unchecked must never be called when the condition is false" }>, align 1
@alloc_7b337508a9458ef9d0ee00fa28109c26 = private unnamed_addr constant <{ [114 x i8] }> <{ [114 x i8] c"/Users/pranayraj/.rustup/toolchains/stable-aarch64-apple-darwin/lib/rustlib/src/rust/library/core/src/ub_checks.rs" }>, align 1
@alloc_214ca87315535ac516aecfd6b57fb254 = private unnamed_addr constant <{ ptr, [16 x i8] }> <{ ptr @alloc_7b337508a9458ef9d0ee00fa28109c26, [16 x i8] c"r\00\00\00\00\00\00\00\86\00\00\006\00\00\00" }>, align 8
@alloc_11195730e5236cfdc15ea13be1c301f9 = private unnamed_addr constant <{ [162 x i8] }> <{ [162 x i8] c"unsafe precondition(s) violated: slice::from_raw_parts requires the pointer to be aligned and non-null, and the total size of the slice not to exceed `isize::MAX`" }>, align 1
@alloc_763310d78c99c2c1ad3f8a9821e942f3 = private unnamed_addr constant <{ [61 x i8] }> <{ [61 x i8] c"is_nonoverlapping: `size_of::<T>() * count` overflows a usize" }>, align 1
@alloc_2d2e4c64584f0baac8ef73ec69f5898c = private unnamed_addr constant <{ [111 x i8] }> <{ [111 x i8] c"/Users/pranayraj/.rustup/toolchains/stable-aarch64-apple-darwin/lib/rustlib/src/rust/library/alloc/src/slice.rs" }>, align 1
@alloc_3ed9867165ae50b05df1f067ecda9ba7 = private unnamed_addr constant <{ ptr, [16 x i8] }> <{ ptr @alloc_2d2e4c64584f0baac8ef73ec69f5898c, [16 x i8] c"o\00\00\00\00\00\00\00\A1\00\00\00\19\00\00\00" }>, align 8
@alloc_3fa53ca40a91fa529aa179441080c3fc = private unnamed_addr constant <{ [6 x i8] }> <{ [6 x i8] c"chinna" }>, align 1
@alloc_f040514fe17cf06266a08cfa3aa44391 = private unnamed_addr constant <{ [13 x i8] }> <{ [13 x i8] c"Say my name:\0A" }>, align 1
@alloc_335ddc454549bc7fa7b9e86e05c5e22a = private unnamed_addr constant <{ ptr, [8 x i8] }> <{ ptr @alloc_f040514fe17cf06266a08cfa3aa44391, [8 x i8] c"\0D\00\00\00\00\00\00\00" }>, align 8
@alloc_49a1e817e911805af64bbc7efb390101 = private unnamed_addr constant <{ [1 x i8] }> <{ [1 x i8] c"\0A" }>, align 1
@alloc_9771be2481f51be410bd2ac520d18601 = private unnamed_addr constant <{ ptr, [8 x i8], ptr, [8 x i8] }> <{ ptr inttoptr (i64 1 to ptr), [8 x i8] zeroinitializer, ptr @alloc_49a1e817e911805af64bbc7efb390101, [8 x i8] c"\01\00\00\00\00\00\00\00" }>, align 8
@alloc_c521a9c4b72daa2cdc3af88caf9e45e0 = private unnamed_addr constant <{ [28 x i8] }> <{ [28 x i8] c"Time passing with this guy: " }>, align 1
@alloc_b41d7e8b28a4fc25155947e43352e184 = private unnamed_addr constant <{ ptr, [8 x i8], ptr, [8 x i8] }> <{ ptr @alloc_c521a9c4b72daa2cdc3af88caf9e45e0, [8 x i8] c"\1C\00\00\00\00\00\00\00", ptr @alloc_49a1e817e911805af64bbc7efb390101, [8 x i8] c"\01\00\00\00\00\00\00\00" }>, align 8

; std::rt::lang_start
; Function Attrs: uwtable
define hidden i64 @_ZN3std2rt10lang_start17h4003e0ffd23c54a1E(ptr %main, i64 %argc, ptr %argv, i8 %sigpipe) unnamed_addr #0 {
start:
  %_8 = alloca [8 x i8], align 8
  %_5 = alloca [8 x i8], align 8
  store ptr %main, ptr %_8, align 8
; call std::rt::lang_start_internal
  %0 = call i64 @_ZN3std2rt19lang_start_internal17hd55fd6ef897020fbE(ptr align 1 %_8, ptr align 8 @vtable.0, i64 %argc, ptr %argv, i8 %sigpipe)
  store i64 %0, ptr %_5, align 8
  %v = load i64, ptr %_5, align 8
  ret i64 %v
}

; std::rt::lang_start::{{closure}}
; Function Attrs: inlinehint uwtable
define internal i32 @"_ZN3std2rt10lang_start28_$u7b$$u7b$closure$u7d$$u7d$17h9097b0aeb619ec9bE"(ptr align 8 %_1) unnamed_addr #1 {
start:
  %_4 = load ptr, ptr %_1, align 8
; call std::sys::backtrace::__rust_begin_short_backtrace
  call void @_ZN3std3sys9backtrace28__rust_begin_short_backtrace17h36f928e8b415ca90E(ptr %_4)
; call <() as std::process::Termination>::report
  %self = call i8 @"_ZN54_$LT$$LP$$RP$$u20$as$u20$std..process..Termination$GT$6report17haafe231a3a3c0846E"()
  %_0 = zext i8 %self to i32
  ret i32 %_0
}

; std::sys::backtrace::__rust_begin_short_backtrace
; Function Attrs: noinline uwtable
define internal void @_ZN3std3sys9backtrace28__rust_begin_short_backtrace17h36f928e8b415ca90E(ptr %f) unnamed_addr #2 {
start:
; call core::ops::function::FnOnce::call_once
  call void @_ZN4core3ops8function6FnOnce9call_once17h605c1581190a03f1E(ptr %f)
  call void asm sideeffect "", "~{memory}"(), !srcloc !3
  ret void
}

; <&T as core::fmt::Display>::fmt
; Function Attrs: uwtable
define internal zeroext i1 @"_ZN44_$LT$$RF$T$u20$as$u20$core..fmt..Display$GT$3fmt17h6c783fc65cc8bfeaE"(ptr align 8 %self, ptr align 8 %f) unnamed_addr #0 {
start:
  %_3 = load ptr, ptr %self, align 8
; call <alloc::string::String as core::fmt::Display>::fmt
  %_0 = call zeroext i1 @"_ZN60_$LT$alloc..string..String$u20$as$u20$core..fmt..Display$GT$3fmt17h0b094a955fdfb891E"(ptr align 8 %_3, ptr align 8 %f)
  ret i1 %_0
}

; core::intrinsics::copy_nonoverlapping::precondition_check
; Function Attrs: inlinehint nounwind uwtable
define internal void @_ZN4core10intrinsics19copy_nonoverlapping18precondition_check17hd07aeb0ba0c708f1E(ptr %src, ptr %dst, i64 %size, i64 %align, i64 %count) unnamed_addr #3 personality ptr @rust_eh_personality {
start:
  %0 = alloca [4 x i8], align 4
  %_26 = alloca [48 x i8], align 8
  %_21 = alloca [4 x i8], align 4
  %_20 = alloca [8 x i8], align 8
  %_19 = alloca [8 x i8], align 8
  %_18 = alloca [8 x i8], align 8
  %_17 = alloca [48 x i8], align 8
  %is_zst = alloca [1 x i8], align 1
  %align1 = alloca [8 x i8], align 8
  %zero_size = alloca [1 x i8], align 1
  %1 = icmp eq i64 %count, 0
  br i1 %1, label %bb1, label %bb2

bb1:                                              ; preds = %start
  store i8 1, ptr %zero_size, align 1
  store i64 %align, ptr %align1, align 8
  %2 = load i8, ptr %zero_size, align 1
  %3 = trunc i8 %2 to i1
  %4 = zext i1 %3 to i8
  store i8 %4, ptr %is_zst, align 1
  %5 = call i64 @llvm.ctpop.i64(i64 %align)
  %6 = trunc i64 %5 to i32
  store i32 %6, ptr %_21, align 4
  %7 = load i32, ptr %_21, align 4
  %8 = icmp eq i32 %7, 1
  br i1 %8, label %bb26, label %bb15

bb2:                                              ; preds = %start
  %9 = icmp eq i64 %size, 0
  %10 = zext i1 %9 to i8
  store i8 %10, ptr %zero_size, align 1
  store i64 %align, ptr %align1, align 8
  %11 = load i8, ptr %zero_size, align 1
  %12 = trunc i8 %11 to i1
  %13 = zext i1 %12 to i8
  store i8 %13, ptr %is_zst, align 1
  %14 = call i64 @llvm.ctpop.i64(i64 %align)
  %15 = trunc i64 %14 to i32
  store i32 %15, ptr %_21, align 4
  %16 = load i32, ptr %_21, align 4
  %17 = icmp eq i32 %16, 1
  br i1 %17, label %bb14, label %bb15

bb26:                                             ; preds = %bb1
  %18 = ptrtoint ptr %src to i64
  store i64 %18, ptr %_19, align 8
  %19 = sub i64 %align, 1
  store i64 %19, ptr %_20, align 8
  %20 = load i64, ptr %_19, align 8
  %21 = load i64, ptr %_20, align 8
  %22 = and i64 %20, %21
  store i64 %22, ptr %_18, align 8
  %23 = load i64, ptr %_18, align 8
  %24 = icmp eq i64 %23, 0
  br i1 %24, label %bb27, label %bb11

bb15:                                             ; preds = %bb2, %bb1
  store ptr @alloc_e92e94d0ff530782b571cfd99ec66aef, ptr %_17, align 8
  %25 = getelementptr inbounds i8, ptr %_17, i64 8
  store i64 1, ptr %25, align 8
  %26 = load ptr, ptr @0, align 8
  %27 = load i64, ptr getelementptr inbounds (i8, ptr @0, i64 8), align 8
  %28 = getelementptr inbounds i8, ptr %_17, i64 32
  store ptr %26, ptr %28, align 8
  %29 = getelementptr inbounds i8, ptr %28, i64 8
  store i64 %27, ptr %29, align 8
  %30 = getelementptr inbounds i8, ptr %_17, i64 16
  store ptr inttoptr (i64 8 to ptr), ptr %30, align 8
  %31 = getelementptr inbounds i8, ptr %30, i64 8
  store i64 0, ptr %31, align 8
; invoke core::panicking::panic_fmt
  invoke void @_ZN4core9panicking9panic_fmt17ha0b5c5252c2f1706E(ptr align 8 %_17, ptr align 8 @alloc_6eb0c129727f748441fe4d10dd46110e) #13
          to label %unreachable unwind label %terminate

bb27:                                             ; preds = %bb26
  br label %bb12

bb11:                                             ; preds = %bb14, %bb26
  br label %bb6

bb12:                                             ; preds = %bb10, %bb27
  br label %bb3

bb14:                                             ; preds = %bb2
  %32 = ptrtoint ptr %src to i64
  store i64 %32, ptr %_19, align 8
  %33 = sub i64 %align, 1
  store i64 %33, ptr %_20, align 8
  %34 = load i64, ptr %_19, align 8
  %35 = load i64, ptr %_20, align 8
  %36 = and i64 %34, %35
  store i64 %36, ptr %_18, align 8
  %37 = load i64, ptr %_18, align 8
  %38 = icmp eq i64 %37, 0
  br i1 %38, label %bb10, label %bb11

bb10:                                             ; preds = %bb14
  %39 = load i8, ptr %is_zst, align 1
  %40 = trunc i8 %39 to i1
  br i1 %40, label %bb12, label %bb13

bb13:                                             ; preds = %bb10
  %41 = load i64, ptr %_19, align 8
  %_15 = icmp eq i64 %41, 0
  %_8 = xor i1 %_15, true
  br i1 %_8, label %bb3, label %bb6

bb6:                                              ; preds = %bb11, %bb13
  br label %bb7

bb3:                                              ; preds = %bb12, %bb13
  %42 = load i8, ptr %zero_size, align 1
  %is_zst2 = trunc i8 %42 to i1
  %43 = call i64 @llvm.ctpop.i64(i64 %align)
  %44 = trunc i64 %43 to i32
  store i32 %44, ptr %0, align 4
  %_29 = load i32, ptr %0, align 4
  %45 = icmp eq i32 %_29, 1
  br i1 %45, label %bb21, label %bb22

bb21:                                             ; preds = %bb3
  %_28 = ptrtoint ptr %dst to i64
  %46 = load i64, ptr %_20, align 8
  %_27 = and i64 %_28, %46
  %47 = icmp eq i64 %_27, 0
  br i1 %47, label %bb17, label %bb18

bb22:                                             ; preds = %bb3
  store ptr @alloc_e92e94d0ff530782b571cfd99ec66aef, ptr %_26, align 8
  %48 = getelementptr inbounds i8, ptr %_26, i64 8
  store i64 1, ptr %48, align 8
  %49 = load ptr, ptr @0, align 8
  %50 = load i64, ptr getelementptr inbounds (i8, ptr @0, i64 8), align 8
  %51 = getelementptr inbounds i8, ptr %_26, i64 32
  store ptr %49, ptr %51, align 8
  %52 = getelementptr inbounds i8, ptr %51, i64 8
  store i64 %50, ptr %52, align 8
  %53 = getelementptr inbounds i8, ptr %_26, i64 16
  store ptr inttoptr (i64 8 to ptr), ptr %53, align 8
  %54 = getelementptr inbounds i8, ptr %53, i64 8
  store i64 0, ptr %54, align 8
; invoke core::panicking::panic_fmt
  invoke void @_ZN4core9panicking9panic_fmt17ha0b5c5252c2f1706E(ptr align 8 %_26, ptr align 8 @alloc_6eb0c129727f748441fe4d10dd46110e) #13
          to label %unreachable unwind label %terminate

bb17:                                             ; preds = %bb21
  br i1 %is_zst2, label %bb19, label %bb20

bb18:                                             ; preds = %bb21
  br label %bb5

bb20:                                             ; preds = %bb17
  %_24 = icmp eq i64 %_28, 0
  %_11 = xor i1 %_24, true
  br i1 %_11, label %bb4, label %bb5

bb19:                                             ; preds = %bb17
  br label %bb4

bb5:                                              ; preds = %bb18, %bb20
  br label %bb7

bb4:                                              ; preds = %bb19, %bb20
; invoke core::ub_checks::maybe_is_nonoverlapping::runtime
  %_6 = invoke zeroext i1 @_ZN4core9ub_checks23maybe_is_nonoverlapping7runtime17hba4e2c90e7bd8e05E(ptr %src, ptr %dst, i64 %size, i64 %count)
          to label %bb24 unwind label %terminate

terminate:                                        ; preds = %bb15, %bb22, %bb4
  %55 = landingpad { ptr, i32 }
          filter [0 x ptr] zeroinitializer
  %56 = extractvalue { ptr, i32 } %55, 0
  %57 = extractvalue { ptr, i32 } %55, 1
; call core::panicking::panic_cannot_unwind
  call void @_ZN4core9panicking19panic_cannot_unwind17h14da2d2699e88696E() #14
  unreachable

bb24:                                             ; preds = %bb4
  br i1 %_6, label %bb9, label %bb8

bb8:                                              ; preds = %bb7, %bb24
; call core::panicking::panic_nounwind
  call void @_ZN4core9panicking14panic_nounwind17h072d1e65f18d6201E(ptr align 1 @alloc_8df0580a595a87d56789d20c7318e185, i64 166) #15
  unreachable

bb9:                                              ; preds = %bb24
  ret void

bb7:                                              ; preds = %bb6, %bb5
  br label %bb8

unreachable:                                      ; preds = %bb15, %bb22
  unreachable
}

; core::intrinsics::cold_path
; Function Attrs: cold nounwind uwtable
define internal void @_ZN4core10intrinsics9cold_path17h0f5941cc0558d2b2E() unnamed_addr #4 {
start:
  ret void
}

; core::fmt::rt::Argument::new_display
; Function Attrs: inlinehint uwtable
define internal void @_ZN4core3fmt2rt8Argument11new_display17hf866e5a36c64a379E(ptr sret([16 x i8]) align 8 %_0, ptr align 8 %x) unnamed_addr #1 {
start:
; call core::fmt::rt::Argument::new
  call void @_ZN4core3fmt2rt8Argument3new17h711c0415adbdb4ffE(ptr sret([16 x i8]) align 8 %_0, ptr align 8 %x, ptr @"_ZN44_$LT$$RF$T$u20$as$u20$core..fmt..Display$GT$3fmt17h6c783fc65cc8bfeaE")
  ret void
}

; core::fmt::rt::Argument::new_display
; Function Attrs: inlinehint uwtable
define internal void @_ZN4core3fmt2rt8Argument11new_display17hfeb9863b5cc90787E(ptr sret([16 x i8]) align 8 %_0, ptr align 8 %x) unnamed_addr #1 {
start:
; call core::fmt::rt::Argument::new
  call void @_ZN4core3fmt2rt8Argument3new17h00875f7e88da6b16E(ptr sret([16 x i8]) align 8 %_0, ptr align 8 %x, ptr @"_ZN60_$LT$alloc..string..String$u20$as$u20$core..fmt..Display$GT$3fmt17h0b094a955fdfb891E")
  ret void
}

; core::fmt::rt::Argument::new
; Function Attrs: inlinehint uwtable
define internal void @_ZN4core3fmt2rt8Argument3new17h00875f7e88da6b16E(ptr sret([16 x i8]) align 8 %_0, ptr align 8 %x, ptr %f) unnamed_addr #1 {
start:
  %_3 = alloca [16 x i8], align 8
  store ptr %x, ptr %_3, align 8
  %0 = getelementptr inbounds i8, ptr %_3, i64 8
  store ptr %f, ptr %0, align 8
  call void @llvm.memcpy.p0.p0.i64(ptr align 8 %_0, ptr align 8 %_3, i64 16, i1 false)
  ret void
}

; core::fmt::rt::Argument::new
; Function Attrs: inlinehint uwtable
define internal void @_ZN4core3fmt2rt8Argument3new17h711c0415adbdb4ffE(ptr sret([16 x i8]) align 8 %_0, ptr align 8 %x, ptr %f) unnamed_addr #1 {
start:
  %_3 = alloca [16 x i8], align 8
  store ptr %x, ptr %_3, align 8
  %0 = getelementptr inbounds i8, ptr %_3, i64 8
  store ptr %f, ptr %0, align 8
  call void @llvm.memcpy.p0.p0.i64(ptr align 8 %_0, ptr align 8 %_3, i64 16, i1 false)
  ret void
}

; core::fmt::Arguments::new_v1
; Function Attrs: inlinehint uwtable
define internal void @_ZN4core3fmt9Arguments6new_v117h6cf6d7d3c8fb114aE(ptr sret([48 x i8]) align 8 %_0, ptr align 8 %pieces, ptr align 8 %args) unnamed_addr #1 {
start:
  store ptr %pieces, ptr %_0, align 8
  %0 = getelementptr inbounds i8, ptr %_0, i64 8
  store i64 2, ptr %0, align 8
  %1 = load ptr, ptr @0, align 8
  %2 = load i64, ptr getelementptr inbounds (i8, ptr @0, i64 8), align 8
  %3 = getelementptr inbounds i8, ptr %_0, i64 32
  store ptr %1, ptr %3, align 8
  %4 = getelementptr inbounds i8, ptr %3, i64 8
  store i64 %2, ptr %4, align 8
  %5 = getelementptr inbounds i8, ptr %_0, i64 16
  store ptr %args, ptr %5, align 8
  %6 = getelementptr inbounds i8, ptr %5, i64 8
  store i64 1, ptr %6, align 8
  ret void
}

; core::fmt::Arguments::new_const
; Function Attrs: inlinehint uwtable
define internal void @_ZN4core3fmt9Arguments9new_const17h0c70fb0f648ee55cE(ptr sret([48 x i8]) align 8 %_0, ptr align 8 %pieces) unnamed_addr #1 {
start:
  store ptr %pieces, ptr %_0, align 8
  %0 = getelementptr inbounds i8, ptr %_0, i64 8
  store i64 1, ptr %0, align 8
  %1 = load ptr, ptr @0, align 8
  %2 = load i64, ptr getelementptr inbounds (i8, ptr @0, i64 8), align 8
  %3 = getelementptr inbounds i8, ptr %_0, i64 32
  store ptr %1, ptr %3, align 8
  %4 = getelementptr inbounds i8, ptr %3, i64 8
  store i64 %2, ptr %4, align 8
  %5 = getelementptr inbounds i8, ptr %_0, i64 16
  store ptr inttoptr (i64 8 to ptr), ptr %5, align 8
  %6 = getelementptr inbounds i8, ptr %5, i64 8
  store i64 0, ptr %6, align 8
  ret void
}

; core::ops::function::FnOnce::call_once{{vtable.shim}}
; Function Attrs: inlinehint uwtable
define internal i32 @"_ZN4core3ops8function6FnOnce40call_once$u7b$$u7b$vtable.shim$u7d$$u7d$17hf886b4233c8dc6a5E"(ptr %_1) unnamed_addr #1 {
start:
  %_2 = alloca [0 x i8], align 1
  %0 = load ptr, ptr %_1, align 8
; call core::ops::function::FnOnce::call_once
  %_0 = call i32 @_ZN4core3ops8function6FnOnce9call_once17ha62263a06eaf3dd5E(ptr %0)
  ret i32 %_0
}

; core::ops::function::FnOnce::call_once
; Function Attrs: inlinehint uwtable
define internal void @_ZN4core3ops8function6FnOnce9call_once17h605c1581190a03f1E(ptr %_1) unnamed_addr #1 {
start:
  %_2 = alloca [0 x i8], align 1
  call void %_1()
  ret void
}

; core::ops::function::FnOnce::call_once
; Function Attrs: inlinehint uwtable
define internal i32 @_ZN4core3ops8function6FnOnce9call_once17ha62263a06eaf3dd5E(ptr %0) unnamed_addr #1 personality ptr @rust_eh_personality {
start:
  %1 = alloca [16 x i8], align 8
  %_2 = alloca [0 x i8], align 1
  %_1 = alloca [8 x i8], align 8
  store ptr %0, ptr %_1, align 8
; invoke std::rt::lang_start::{{closure}}
  %_0 = invoke i32 @"_ZN3std2rt10lang_start28_$u7b$$u7b$closure$u7d$$u7d$17h9097b0aeb619ec9bE"(ptr align 8 %_1)
          to label %bb1 unwind label %cleanup

bb3:                                              ; preds = %cleanup
  %2 = load ptr, ptr %1, align 8
  %3 = getelementptr inbounds i8, ptr %1, i64 8
  %4 = load i32, ptr %3, align 8
  %5 = insertvalue { ptr, i32 } poison, ptr %2, 0
  %6 = insertvalue { ptr, i32 } %5, i32 %4, 1
  resume { ptr, i32 } %6

cleanup:                                          ; preds = %start
  %7 = landingpad { ptr, i32 }
          cleanup
  %8 = extractvalue { ptr, i32 } %7, 0
  %9 = extractvalue { ptr, i32 } %7, 1
  store ptr %8, ptr %1, align 8
  %10 = getelementptr inbounds i8, ptr %1, i64 8
  store i32 %9, ptr %10, align 8
  br label %bb3

bb1:                                              ; preds = %start
  ret i32 %_0
}

; core::ptr::drop_in_place<alloc::string::String>
; Function Attrs: uwtable
define internal void @"_ZN4core3ptr42drop_in_place$LT$alloc..string..String$GT$17h2b6d686dd38033c3E"(ptr align 8 %_1) unnamed_addr #0 {
start:
; call core::ptr::drop_in_place<alloc::vec::Vec<u8>>
  call void @"_ZN4core3ptr46drop_in_place$LT$alloc..vec..Vec$LT$u8$GT$$GT$17hca660f0eecacbbf5E"(ptr align 8 %_1)
  ret void
}

; core::ptr::drop_in_place<alloc::vec::Vec<u8>>
; Function Attrs: uwtable
define internal void @"_ZN4core3ptr46drop_in_place$LT$alloc..vec..Vec$LT$u8$GT$$GT$17hca660f0eecacbbf5E"(ptr align 8 %_1) unnamed_addr #0 personality ptr @rust_eh_personality {
start:
  %0 = alloca [16 x i8], align 8
; invoke <alloc::vec::Vec<T,A> as core::ops::drop::Drop>::drop
  invoke void @"_ZN70_$LT$alloc..vec..Vec$LT$T$C$A$GT$$u20$as$u20$core..ops..drop..Drop$GT$4drop17h9c3b7a12be175c23E"(ptr align 8 %_1)
          to label %bb4 unwind label %cleanup

bb3:                                              ; preds = %cleanup
; invoke core::ptr::drop_in_place<alloc::raw_vec::RawVec<u8>>
  invoke void @"_ZN4core3ptr53drop_in_place$LT$alloc..raw_vec..RawVec$LT$u8$GT$$GT$17h1d178c8d38870007E"(ptr align 8 %_1) #16
          to label %bb1 unwind label %terminate

cleanup:                                          ; preds = %start
  %1 = landingpad { ptr, i32 }
          cleanup
  %2 = extractvalue { ptr, i32 } %1, 0
  %3 = extractvalue { ptr, i32 } %1, 1
  store ptr %2, ptr %0, align 8
  %4 = getelementptr inbounds i8, ptr %0, i64 8
  store i32 %3, ptr %4, align 8
  br label %bb3

bb4:                                              ; preds = %start
; call core::ptr::drop_in_place<alloc::raw_vec::RawVec<u8>>
  call void @"_ZN4core3ptr53drop_in_place$LT$alloc..raw_vec..RawVec$LT$u8$GT$$GT$17h1d178c8d38870007E"(ptr align 8 %_1)
  ret void

terminate:                                        ; preds = %bb3
  %5 = landingpad { ptr, i32 }
          filter [0 x ptr] zeroinitializer
  %6 = extractvalue { ptr, i32 } %5, 0
  %7 = extractvalue { ptr, i32 } %5, 1
; call core::panicking::panic_in_cleanup
  call void @_ZN4core9panicking16panic_in_cleanup17h7339610fb5fc966cE() #14
  unreachable

bb1:                                              ; preds = %bb3
  %8 = load ptr, ptr %0, align 8
  %9 = getelementptr inbounds i8, ptr %0, i64 8
  %10 = load i32, ptr %9, align 8
  %11 = insertvalue { ptr, i32 } poison, ptr %8, 0
  %12 = insertvalue { ptr, i32 } %11, i32 %10, 1
  resume { ptr, i32 } %12
}

; core::ptr::drop_in_place<alloc::raw_vec::RawVec<u8>>
; Function Attrs: uwtable
define internal void @"_ZN4core3ptr53drop_in_place$LT$alloc..raw_vec..RawVec$LT$u8$GT$$GT$17h1d178c8d38870007E"(ptr align 8 %_1) unnamed_addr #0 {
start:
; call <alloc::raw_vec::RawVec<T,A> as core::ops::drop::Drop>::drop
  call void @"_ZN77_$LT$alloc..raw_vec..RawVec$LT$T$C$A$GT$$u20$as$u20$core..ops..drop..Drop$GT$4drop17h65bf36338478a7f4E"(ptr align 8 %_1)
  ret void
}

; core::ptr::drop_in_place<std::rt::lang_start<()>::{{closure}}>
; Function Attrs: inlinehint uwtable
define internal void @"_ZN4core3ptr85drop_in_place$LT$std..rt..lang_start$LT$$LP$$RP$$GT$..$u7b$$u7b$closure$u7d$$u7d$$GT$17hd27bf5df636f3b13E"(ptr align 8 %_1) unnamed_addr #1 {
start:
  ret void
}

; core::hint::assert_unchecked::precondition_check
; Function Attrs: inlinehint nounwind uwtable
define internal void @_ZN4core4hint16assert_unchecked18precondition_check17h8fd94cc194ab9e97E(i1 zeroext %cond) unnamed_addr #3 {
start:
  br i1 %cond, label %bb2, label %bb1

bb1:                                              ; preds = %start
; call core::panicking::panic_nounwind
  call void @_ZN4core9panicking14panic_nounwind17h072d1e65f18d6201E(ptr align 1 @alloc_ab14703751a9eb3585c49b2e55e9a9e5, i64 104) #15
  unreachable

bb2:                                              ; preds = %start
  ret void
}

; core::slice::raw::from_raw_parts::precondition_check
; Function Attrs: inlinehint nounwind uwtable
define internal void @_ZN4core5slice3raw14from_raw_parts18precondition_check17he9a1c0cf74d27f8aE(ptr %data, i64 %size, i64 %align, i64 %len) unnamed_addr #3 personality ptr @rust_eh_personality {
start:
  %0 = alloca [4 x i8], align 4
  %max_len = alloca [8 x i8], align 8
  %_11 = alloca [48 x i8], align 8
  %1 = call i64 @llvm.ctpop.i64(i64 %align)
  %2 = trunc i64 %1 to i32
  store i32 %2, ptr %0, align 4
  %_15 = load i32, ptr %0, align 4
  %3 = icmp eq i32 %_15, 1
  br i1 %3, label %bb8, label %bb9

bb8:                                              ; preds = %start
  %_13 = ptrtoint ptr %data to i64
  %_14 = sub i64 %align, 1
  %_12 = and i64 %_13, %_14
  %4 = icmp eq i64 %_12, 0
  br i1 %4, label %bb6, label %bb7

bb9:                                              ; preds = %start
  store ptr @alloc_e92e94d0ff530782b571cfd99ec66aef, ptr %_11, align 8
  %5 = getelementptr inbounds i8, ptr %_11, i64 8
  store i64 1, ptr %5, align 8
  %6 = load ptr, ptr @0, align 8
  %7 = load i64, ptr getelementptr inbounds (i8, ptr @0, i64 8), align 8
  %8 = getelementptr inbounds i8, ptr %_11, i64 32
  store ptr %6, ptr %8, align 8
  %9 = getelementptr inbounds i8, ptr %8, i64 8
  store i64 %7, ptr %9, align 8
  %10 = getelementptr inbounds i8, ptr %_11, i64 16
  store ptr inttoptr (i64 8 to ptr), ptr %10, align 8
  %11 = getelementptr inbounds i8, ptr %10, i64 8
  store i64 0, ptr %11, align 8
; invoke core::panicking::panic_fmt
  invoke void @_ZN4core9panicking9panic_fmt17ha0b5c5252c2f1706E(ptr align 8 %_11, ptr align 8 @alloc_6eb0c129727f748441fe4d10dd46110e) #13
          to label %unreachable unwind label %terminate

bb6:                                              ; preds = %bb8
  %_9 = icmp eq i64 %_13, 0
  %_5 = xor i1 %_9, true
  br i1 %_5, label %bb1, label %bb4

bb7:                                              ; preds = %bb8
  br label %bb4

bb4:                                              ; preds = %bb7, %bb6
  br label %bb5

bb1:                                              ; preds = %bb6
  %_19 = icmp eq i64 %size, 0
  %12 = icmp eq i64 %size, 0
  br i1 %12, label %bb11, label %bb12

bb11:                                             ; preds = %bb1
  store i64 -1, ptr %max_len, align 8
  br label %bb14

bb12:                                             ; preds = %bb1
  br i1 %_19, label %panic, label %bb13

bb14:                                             ; preds = %bb13, %bb11
  %_20 = load i64, ptr %max_len, align 8
  %_7 = icmp ule i64 %len, %_20
  br i1 %_7, label %bb2, label %bb3

bb13:                                             ; preds = %bb12
  %13 = udiv i64 9223372036854775807, %size
  store i64 %13, ptr %max_len, align 8
  br label %bb14

panic:                                            ; preds = %bb12
; invoke core::panicking::panic_const::panic_const_div_by_zero
  invoke void @_ZN4core9panicking11panic_const23panic_const_div_by_zero17he01ffb20ed1c332bE(ptr align 8 @alloc_214ca87315535ac516aecfd6b57fb254) #13
          to label %unreachable unwind label %terminate

terminate:                                        ; preds = %bb9, %panic
  %14 = landingpad { ptr, i32 }
          filter [0 x ptr] zeroinitializer
  %15 = extractvalue { ptr, i32 } %14, 0
  %16 = extractvalue { ptr, i32 } %14, 1
; call core::panicking::panic_cannot_unwind
  call void @_ZN4core9panicking19panic_cannot_unwind17h14da2d2699e88696E() #14
  unreachable

unreachable:                                      ; preds = %bb9, %panic
  unreachable

bb3:                                              ; preds = %bb14
  br label %bb5

bb2:                                              ; preds = %bb14
  ret void

bb5:                                              ; preds = %bb4, %bb3
; call core::panicking::panic_nounwind
  call void @_ZN4core9panicking14panic_nounwind17h072d1e65f18d6201E(ptr align 1 @alloc_11195730e5236cfdc15ea13be1c301f9, i64 162) #15
  unreachable
}

; core::ub_checks::maybe_is_nonoverlapping::runtime
; Function Attrs: inlinehint uwtable
define internal zeroext i1 @_ZN4core9ub_checks23maybe_is_nonoverlapping7runtime17hba4e2c90e7bd8e05E(ptr %src, ptr %dst, i64 %size, i64 %count) unnamed_addr #1 {
start:
  %diff = alloca [8 x i8], align 8
  %_9 = alloca [16 x i8], align 8
  %src_usize = ptrtoint ptr %src to i64
  %dst_usize = ptrtoint ptr %dst to i64
  %0 = call { i64, i1 } @llvm.umul.with.overflow.i64(i64 %size, i64 %count)
  %_14.0 = extractvalue { i64, i1 } %0, 0
  %_14.1 = extractvalue { i64, i1 } %0, 1
  br i1 %_14.1, label %bb1, label %bb3

bb3:                                              ; preds = %start
  %1 = getelementptr inbounds i8, ptr %_9, i64 8
  store i64 %_14.0, ptr %1, align 8
  store i64 1, ptr %_9, align 8
  %2 = getelementptr inbounds i8, ptr %_9, i64 8
  %size1 = load i64, ptr %2, align 8
  %_22 = icmp ult i64 %src_usize, %dst_usize
  br i1 %_22, label %bb4, label %bb5

bb1:                                              ; preds = %start
; call core::panicking::panic_nounwind
  call void @_ZN4core9panicking14panic_nounwind17h072d1e65f18d6201E(ptr align 1 @alloc_763310d78c99c2c1ad3f8a9821e942f3, i64 61) #15
  unreachable

bb5:                                              ; preds = %bb3
  %3 = sub i64 %src_usize, %dst_usize
  store i64 %3, ptr %diff, align 8
  br label %bb6

bb4:                                              ; preds = %bb3
  %4 = sub i64 %dst_usize, %src_usize
  store i64 %4, ptr %diff, align 8
  br label %bb6

bb6:                                              ; preds = %bb4, %bb5
  %_11 = load i64, ptr %diff, align 8
  %_0 = icmp uge i64 %_11, %size1
  ret i1 %_0
}

; <T as alloc::slice::hack::ConvertVec>::to_vec
; Function Attrs: inlinehint uwtable
define internal void @"_ZN52_$LT$T$u20$as$u20$alloc..slice..hack..ConvertVec$GT$6to_vec17hf31e44182579c676E"(ptr sret([24 x i8]) align 8 %_0, ptr align 1 %s.0, i64 %s.1) unnamed_addr #1 {
start:
  %v = alloca [24 x i8], align 8
; call alloc::raw_vec::RawVecInner<A>::with_capacity_in
  %0 = call { i64, ptr } @"_ZN5alloc7raw_vec20RawVecInner$LT$A$GT$16with_capacity_in17h0cc074c43a8fe3f7E"(i64 %s.1, i64 1, i64 1, ptr align 8 @alloc_3ed9867165ae50b05df1f067ecda9ba7)
  %_10.0 = extractvalue { i64, ptr } %0, 0
  %_10.1 = extractvalue { i64, ptr } %0, 1
  store i64 %_10.0, ptr %v, align 8
  %1 = getelementptr inbounds i8, ptr %v, i64 8
  store ptr %_10.1, ptr %1, align 8
  %2 = getelementptr inbounds i8, ptr %v, i64 16
  store i64 0, ptr %2, align 8
  %3 = getelementptr inbounds i8, ptr %v, i64 8
  %_15 = load ptr, ptr %3, align 8
  br label %bb2

bb2:                                              ; preds = %start
; call core::intrinsics::copy_nonoverlapping::precondition_check
  call void @_ZN4core10intrinsics19copy_nonoverlapping18precondition_check17hd07aeb0ba0c708f1E(ptr %s.0, ptr %_15, i64 1, i64 1, i64 %s.1) #17
  br label %bb4

bb4:                                              ; preds = %bb2
  %4 = mul i64 %s.1, 1
  call void @llvm.memcpy.p0.p0.i64(ptr align 1 %_15, ptr align 1 %s.0, i64 %4, i1 false)
  %5 = getelementptr inbounds i8, ptr %v, i64 16
  store i64 %s.1, ptr %5, align 8
  call void @llvm.memcpy.p0.p0.i64(ptr align 8 %_0, ptr align 8 %v, i64 24, i1 false)
  ret void
}

; <() as std::process::Termination>::report
; Function Attrs: inlinehint uwtable
define internal i8 @"_ZN54_$LT$$LP$$RP$$u20$as$u20$std..process..Termination$GT$6report17haafe231a3a3c0846E"() unnamed_addr #1 {
start:
  ret i8 0
}

; alloc::raw_vec::RawVecInner<A>::with_capacity_in
; Function Attrs: inlinehint uwtable
define internal { i64, ptr } @"_ZN5alloc7raw_vec20RawVecInner$LT$A$GT$16with_capacity_in17h0cc074c43a8fe3f7E"(i64 %capacity, i64 %elem_layout.0, i64 %elem_layout.1, ptr align 8 %0) unnamed_addr #1 {
start:
  %self = alloca [8 x i8], align 8
  %elem_layout = alloca [16 x i8], align 8
  %this = alloca [16 x i8], align 8
  %_4 = alloca [24 x i8], align 8
; call alloc::raw_vec::RawVecInner<A>::try_allocate_in
  call void @"_ZN5alloc7raw_vec20RawVecInner$LT$A$GT$15try_allocate_in17hba33529122a3f65dE"(ptr sret([24 x i8]) align 8 %_4, i64 %capacity, i1 zeroext false, i64 %elem_layout.0, i64 %elem_layout.1)
  %_5 = load i64, ptr %_4, align 8
  %1 = icmp eq i64 %_5, 0
  br i1 %1, label %bb4, label %bb3

bb4:                                              ; preds = %start
  %2 = getelementptr inbounds i8, ptr %_4, i64 8
  %3 = load i64, ptr %2, align 8
  %4 = getelementptr inbounds i8, ptr %2, i64 8
  %5 = load ptr, ptr %4, align 8
  store i64 %3, ptr %this, align 8
  %6 = getelementptr inbounds i8, ptr %this, i64 8
  store ptr %5, ptr %6, align 8
  store i64 %elem_layout.0, ptr %elem_layout, align 8
  %7 = getelementptr inbounds i8, ptr %elem_layout, i64 8
  store i64 %elem_layout.1, ptr %7, align 8
  %8 = icmp eq i64 %elem_layout.1, 0
  br i1 %8, label %bb6, label %bb7

bb3:                                              ; preds = %start
  %9 = getelementptr inbounds i8, ptr %_4, i64 8
  %err.0 = load i64, ptr %9, align 8
  %10 = getelementptr inbounds i8, ptr %9, i64 8
  %err.1 = load i64, ptr %10, align 8
; call alloc::raw_vec::handle_error
  call void @_ZN5alloc7raw_vec12handle_error17h3a2b2a11ce049f14E(i64 %err.0, i64 %err.1, ptr align 8 %0) #13
  unreachable

bb6:                                              ; preds = %bb4
  store i64 -1, ptr %self, align 8
  br label %bb5

bb7:                                              ; preds = %bb4
  %11 = load i64, ptr %this, align 8
  store i64 %11, ptr %self, align 8
  br label %bb5

bb5:                                              ; preds = %bb7, %bb6
  %12 = load i64, ptr %self, align 8
  %_13 = sub i64 %12, 0
  %_8 = icmp ugt i64 %capacity, %_13
  %cond = xor i1 %_8, true
  br label %bb8

bb8:                                              ; preds = %bb5
; call core::hint::assert_unchecked::precondition_check
  call void @_ZN4core4hint16assert_unchecked18precondition_check17h8fd94cc194ab9e97E(i1 zeroext %cond) #17
  br label %bb9

bb9:                                              ; preds = %bb8
  %_0.0 = load i64, ptr %this, align 8
  %13 = getelementptr inbounds i8, ptr %this, i64 8
  %_0.1 = load ptr, ptr %13, align 8
  %14 = insertvalue { i64, ptr } poison, i64 %_0.0, 0
  %15 = insertvalue { i64, ptr } %14, ptr %_0.1, 1
  ret { i64, ptr } %15

bb2:                                              ; No predecessors!
  unreachable
}

; <alloc::string::String as core::fmt::Display>::fmt
; Function Attrs: inlinehint uwtable
define internal zeroext i1 @"_ZN60_$LT$alloc..string..String$u20$as$u20$core..fmt..Display$GT$3fmt17h0b094a955fdfb891E"(ptr align 8 %self, ptr align 8 %f) unnamed_addr #1 {
start:
  %0 = getelementptr inbounds i8, ptr %self, i64 8
  %_12 = load ptr, ptr %0, align 8
  %1 = getelementptr inbounds i8, ptr %self, i64 16
  %len = load i64, ptr %1, align 8
  br label %bb2

bb2:                                              ; preds = %start
; call core::slice::raw::from_raw_parts::precondition_check
  call void @_ZN4core5slice3raw14from_raw_parts18precondition_check17he9a1c0cf74d27f8aE(ptr %_12, i64 1, i64 1, i64 %len) #17
  br label %bb4

bb4:                                              ; preds = %bb2
; call <str as core::fmt::Display>::fmt
  %_0 = call zeroext i1 @"_ZN42_$LT$str$u20$as$u20$core..fmt..Display$GT$3fmt17hbba14ab48b78580bE"(ptr align 1 %_12, i64 %len, ptr align 8 %f)
  ret i1 %_0
}

; <alloc::string::String as core::convert::From<&str>>::from
; Function Attrs: inlinehint uwtable
define internal void @"_ZN76_$LT$alloc..string..String$u20$as$u20$core..convert..From$LT$$RF$str$GT$$GT$4from17h5c040eb6c62aa9c9E"(ptr sret([24 x i8]) align 8 %_0, ptr align 1 %s.0, i64 %s.1) unnamed_addr #1 {
start:
  %bytes = alloca [24 x i8], align 8
; call <T as alloc::slice::hack::ConvertVec>::to_vec
  call void @"_ZN52_$LT$T$u20$as$u20$alloc..slice..hack..ConvertVec$GT$6to_vec17hf31e44182579c676E"(ptr sret([24 x i8]) align 8 %bytes, ptr align 1 %s.0, i64 %s.1)
  call void @llvm.memcpy.p0.p0.i64(ptr align 8 %_0, ptr align 8 %bytes, i64 24, i1 false)
  ret void
}

; main::main
; Function Attrs: uwtable
define internal void @_ZN4main4main17h32d243274e2ed5edE() unnamed_addr #0 personality ptr @rust_eh_personality {
start:
  %0 = alloca [16 x i8], align 8
  %_10 = alloca [16 x i8], align 8
  %_9 = alloca [16 x i8], align 8
  %_6 = alloca [48 x i8], align 8
  %_3 = alloca [48 x i8], align 8
  %some = alloca [24 x i8], align 8
; call <alloc::string::String as core::convert::From<&str>>::from
  call void @"_ZN76_$LT$alloc..string..String$u20$as$u20$core..convert..From$LT$$RF$str$GT$$GT$4from17h5c040eb6c62aa9c9E"(ptr sret([24 x i8]) align 8 %some, ptr align 1 @alloc_3fa53ca40a91fa529aa179441080c3fc, i64 6)
; invoke core::fmt::Arguments::new_const
  invoke void @_ZN4core3fmt9Arguments9new_const17h0c70fb0f648ee55cE(ptr sret([48 x i8]) align 8 %_3, ptr align 8 @alloc_335ddc454549bc7fa7b9e86e05c5e22a)
          to label %bb2 unwind label %cleanup

bb9:                                              ; preds = %cleanup
; invoke core::ptr::drop_in_place<alloc::string::String>
  invoke void @"_ZN4core3ptr42drop_in_place$LT$alloc..string..String$GT$17h2b6d686dd38033c3E"(ptr align 8 %some) #16
          to label %bb10 unwind label %terminate

cleanup:                                          ; preds = %bb6, %bb5, %bb4, %bb3, %bb2, %start
  %1 = landingpad { ptr, i32 }
          cleanup
  %2 = extractvalue { ptr, i32 } %1, 0
  %3 = extractvalue { ptr, i32 } %1, 1
  store ptr %2, ptr %0, align 8
  %4 = getelementptr inbounds i8, ptr %0, i64 8
  store i32 %3, ptr %4, align 8
  br label %bb9

bb2:                                              ; preds = %start
; invoke std::io::stdio::_print
  invoke void @_ZN3std2io5stdio6_print17hb25b47d52463b4cdE(ptr align 8 %_3)
          to label %bb3 unwind label %cleanup

bb3:                                              ; preds = %bb2
; invoke core::fmt::rt::Argument::new_display
  invoke void @_ZN4core3fmt2rt8Argument11new_display17hfeb9863b5cc90787E(ptr sret([16 x i8]) align 8 %_10, ptr align 8 %some)
          to label %bb4 unwind label %cleanup

bb4:                                              ; preds = %bb3
  %5 = getelementptr inbounds %"core::fmt::rt::Argument<'_>", ptr %_9, i64 0
  call void @llvm.memcpy.p0.p0.i64(ptr align 8 %5, ptr align 8 %_10, i64 16, i1 false)
; invoke core::fmt::Arguments::new_v1
  invoke void @_ZN4core3fmt9Arguments6new_v117h6cf6d7d3c8fb114aE(ptr sret([48 x i8]) align 8 %_6, ptr align 8 @alloc_9771be2481f51be410bd2ac520d18601, ptr align 8 %_9)
          to label %bb5 unwind label %cleanup

bb5:                                              ; preds = %bb4
; invoke std::io::stdio::_print
  invoke void @_ZN3std2io5stdio6_print17hb25b47d52463b4cdE(ptr align 8 %_6)
          to label %bb6 unwind label %cleanup

bb6:                                              ; preds = %bb5
; invoke main::time_pass
  invoke void @_ZN4main9time_pass17h8c7cb1972d16558fE(ptr align 8 %some)
          to label %bb7 unwind label %cleanup

bb7:                                              ; preds = %bb6
; call core::ptr::drop_in_place<alloc::string::String>
  call void @"_ZN4core3ptr42drop_in_place$LT$alloc..string..String$GT$17h2b6d686dd38033c3E"(ptr align 8 %some)
  ret void

terminate:                                        ; preds = %bb9
  %6 = landingpad { ptr, i32 }
          filter [0 x ptr] zeroinitializer
  %7 = extractvalue { ptr, i32 } %6, 0
  %8 = extractvalue { ptr, i32 } %6, 1
; call core::panicking::panic_in_cleanup
  call void @_ZN4core9panicking16panic_in_cleanup17h7339610fb5fc966cE() #14
  unreachable

bb10:                                             ; preds = %bb9
  %9 = load ptr, ptr %0, align 8
  %10 = getelementptr inbounds i8, ptr %0, i64 8
  %11 = load i32, ptr %10, align 8
  %12 = insertvalue { ptr, i32 } poison, ptr %9, 0
  %13 = insertvalue { ptr, i32 } %12, i32 %11, 1
  resume { ptr, i32 } %13
}

; main::time_pass
; Function Attrs: uwtable
define internal void @_ZN4main9time_pass17h8c7cb1972d16558fE(ptr align 8 %0) unnamed_addr #0 {
start:
  %_7 = alloca [16 x i8], align 8
  %_6 = alloca [16 x i8], align 8
  %_3 = alloca [48 x i8], align 8
  %pass = alloca [8 x i8], align 8
  store ptr %0, ptr %pass, align 8
; call core::fmt::rt::Argument::new_display
  call void @_ZN4core3fmt2rt8Argument11new_display17hf866e5a36c64a379E(ptr sret([16 x i8]) align 8 %_7, ptr align 8 %pass)
  %1 = getelementptr inbounds %"core::fmt::rt::Argument<'_>", ptr %_6, i64 0
  call void @llvm.memcpy.p0.p0.i64(ptr align 8 %1, ptr align 8 %_7, i64 16, i1 false)
; call core::fmt::Arguments::new_v1
  call void @_ZN4core3fmt9Arguments6new_v117h6cf6d7d3c8fb114aE(ptr sret([48 x i8]) align 8 %_3, ptr align 8 @alloc_b41d7e8b28a4fc25155947e43352e184, ptr align 8 %_6)
; call std::io::stdio::_print
  call void @_ZN3std2io5stdio6_print17hb25b47d52463b4cdE(ptr align 8 %_3)
  ret void
}

; std::rt::lang_start_internal
; Function Attrs: uwtable
declare i64 @_ZN3std2rt19lang_start_internal17hd55fd6ef897020fbE(ptr align 1, ptr align 8, i64, ptr, i8) unnamed_addr #0

; Function Attrs: nounwind uwtable
declare i32 @rust_eh_personality(i32, i32, i64, ptr, ptr) unnamed_addr #5

; Function Attrs: nocallback nofree nosync nounwind speculatable willreturn memory(none)
declare i64 @llvm.ctpop.i64(i64) #6

; core::panicking::panic_cannot_unwind
; Function Attrs: cold minsize noinline noreturn nounwind optsize uwtable
declare void @_ZN4core9panicking19panic_cannot_unwind17h14da2d2699e88696E() unnamed_addr #7

; core::panicking::panic_fmt
; Function Attrs: cold noinline noreturn uwtable
declare void @_ZN4core9panicking9panic_fmt17ha0b5c5252c2f1706E(ptr align 8, ptr align 8) unnamed_addr #8

; core::panicking::panic_nounwind
; Function Attrs: cold noinline noreturn nounwind uwtable
declare void @_ZN4core9panicking14panic_nounwind17h072d1e65f18d6201E(ptr align 1, i64) unnamed_addr #9

; Function Attrs: nocallback nofree nounwind willreturn memory(argmem: readwrite)
declare void @llvm.memcpy.p0.p0.i64(ptr noalias nocapture writeonly, ptr noalias nocapture readonly, i64, i1 immarg) #10

; <alloc::vec::Vec<T,A> as core::ops::drop::Drop>::drop
; Function Attrs: uwtable
declare void @"_ZN70_$LT$alloc..vec..Vec$LT$T$C$A$GT$$u20$as$u20$core..ops..drop..Drop$GT$4drop17h9c3b7a12be175c23E"(ptr align 8) unnamed_addr #0

; core::panicking::panic_in_cleanup
; Function Attrs: cold minsize noinline noreturn nounwind optsize uwtable
declare void @_ZN4core9panicking16panic_in_cleanup17h7339610fb5fc966cE() unnamed_addr #7

; <alloc::raw_vec::RawVec<T,A> as core::ops::drop::Drop>::drop
; Function Attrs: uwtable
declare void @"_ZN77_$LT$alloc..raw_vec..RawVec$LT$T$C$A$GT$$u20$as$u20$core..ops..drop..Drop$GT$4drop17h65bf36338478a7f4E"(ptr align 8) unnamed_addr #0

; core::panicking::panic_const::panic_const_div_by_zero
; Function Attrs: cold noinline noreturn uwtable
declare void @_ZN4core9panicking11panic_const23panic_const_div_by_zero17he01ffb20ed1c332bE(ptr align 8) unnamed_addr #8

; Function Attrs: nocallback nofree nosync nounwind speculatable willreturn memory(none)
declare { i64, i1 } @llvm.umul.with.overflow.i64(i64, i64) #6

; alloc::raw_vec::RawVecInner<A>::try_allocate_in
; Function Attrs: uwtable
declare void @"_ZN5alloc7raw_vec20RawVecInner$LT$A$GT$15try_allocate_in17hba33529122a3f65dE"(ptr sret([24 x i8]) align 8, i64, i1 zeroext, i64, i64) unnamed_addr #0

; alloc::raw_vec::handle_error
; Function Attrs: cold minsize noreturn optsize uwtable
declare void @_ZN5alloc7raw_vec12handle_error17h3a2b2a11ce049f14E(i64, i64, ptr align 8) unnamed_addr #11

; <str as core::fmt::Display>::fmt
; Function Attrs: uwtable
declare zeroext i1 @"_ZN42_$LT$str$u20$as$u20$core..fmt..Display$GT$3fmt17hbba14ab48b78580bE"(ptr align 1, i64, ptr align 8) unnamed_addr #0

; std::io::stdio::_print
; Function Attrs: uwtable
declare void @_ZN3std2io5stdio6_print17hb25b47d52463b4cdE(ptr align 8) unnamed_addr #0

define i32 @main(i32 %0, ptr %1) unnamed_addr #12 {
top:
  %2 = sext i32 %0 to i64
; call std::rt::lang_start
  %3 = call i64 @_ZN3std2rt10lang_start17h4003e0ffd23c54a1E(ptr @_ZN4main4main17h32d243274e2ed5edE, i64 %2, ptr %1, i8 0)
  %4 = trunc i64 %3 to i32
  ret i32 %4
}

attributes #0 = { uwtable "frame-pointer"="non-leaf" "probe-stack"="inline-asm" "target-cpu"="apple-m1" }
attributes #1 = { inlinehint uwtable "frame-pointer"="non-leaf" "probe-stack"="inline-asm" "target-cpu"="apple-m1" }
attributes #2 = { noinline uwtable "frame-pointer"="non-leaf" "probe-stack"="inline-asm" "target-cpu"="apple-m1" }
attributes #3 = { inlinehint nounwind uwtable "frame-pointer"="non-leaf" "probe-stack"="inline-asm" "target-cpu"="apple-m1" }
attributes #4 = { cold nounwind uwtable "frame-pointer"="non-leaf" "probe-stack"="inline-asm" "target-cpu"="apple-m1" }
attributes #5 = { nounwind uwtable "frame-pointer"="non-leaf" "probe-stack"="inline-asm" "target-cpu"="apple-m1" }
attributes #6 = { nocallback nofree nosync nounwind speculatable willreturn memory(none) }
attributes #7 = { cold minsize noinline noreturn nounwind optsize uwtable "frame-pointer"="non-leaf" "probe-stack"="inline-asm" "target-cpu"="apple-m1" }
attributes #8 = { cold noinline noreturn uwtable "frame-pointer"="non-leaf" "probe-stack"="inline-asm" "target-cpu"="apple-m1" }
attributes #9 = { cold noinline noreturn nounwind uwtable "frame-pointer"="non-leaf" "probe-stack"="inline-asm" "target-cpu"="apple-m1" }
attributes #10 = { nocallback nofree nounwind willreturn memory(argmem: readwrite) }
attributes #11 = { cold minsize noreturn optsize uwtable "frame-pointer"="non-leaf" "probe-stack"="inline-asm" "target-cpu"="apple-m1" }
attributes #12 = { "frame-pointer"="non-leaf" "target-cpu"="apple-m1" }
attributes #13 = { noreturn }
attributes #14 = { cold noreturn nounwind }
attributes #15 = { noreturn nounwind }
attributes #16 = { cold }
attributes #17 = { nounwind }

!llvm.module.flags = !{!0, !1}
!llvm.ident = !{!2}

!0 = !{i32 8, !"PIC Level", i32 2}
!1 = !{i32 7, !"PIE Level", i32 2}
!2 = !{!"rustc version 1.85.1 (4eb161250 2025-03-15)"}
!3 = !{i64 12059538025535475}
